; ModuleID = '46/3348.c'
source_filename = "46/3348.c"
target datalayout = "e-m:e-p270:32:32-p271:32:32-p272:64:64-i64:64-f80:128-n8:16:32:64-S128"
target triple = "x86_64-pc-linux-gnu"

@__const.main.a = private unnamed_addr constant [4 x [2 x i32]] [[2 x i32] [i32 0, i32 1], [2 x i32] [i32 1, i32 0], [2 x i32] [i32 0, i32 -1], [2 x i32] [i32 -1, i32 0]], align 16
@.str = private unnamed_addr constant [5 x i8] c"%d%d\00", align 1
@.str.1 = private unnamed_addr constant [3 x i8] c"%d\00", align 1
@.str.2 = private unnamed_addr constant [4 x i8] c"\0A%d\00", align 1

; Function Attrs: noinline nounwind uwtable
define dso_local i32 @main() #0 {
  %1 = alloca i32, align 4
  %2 = alloca [4 x [2 x i32]], align 16
  %3 = alloca i32, align 4
  %4 = alloca i32, align 4
  %5 = alloca i32, align 4
  %6 = alloca i32, align 4
  %7 = alloca i32, align 4
  %8 = alloca [200 x [200 x i32]], align 16
  %9 = alloca i32, align 4
  %10 = alloca i32, align 4
  store i32 0, i32* %1, align 4
  %11 = bitcast [4 x [2 x i32]]* %2 to i8*
  call void @llvm.memcpy.p0i8.p0i8.i64(i8* align 16 %11, i8* align 16 bitcast ([4 x [2 x i32]]* @__const.main.a to i8*), i64 32, i1 false)
  %12 = call i32 (i8*, ...) @__isoc99_scanf(i8* getelementptr inbounds ([5 x i8], [5 x i8]* @.str, i64 0, i64 0), i32* %4, i32* %5)
  store i32 0, i32* %3, align 4
  br label %13

13:                                               ; preds = %35, %0
  %14 = load i32, i32* %3, align 4
  %15 = load i32, i32* %4, align 4
  %16 = add nsw i32 %15, 1
  %17 = icmp sle i32 %14, %16
  br i1 %17, label %18, label %38

18:                                               ; preds = %13
  store i32 0, i32* %6, align 4
  br label %19

19:                                               ; preds = %31, %18
  %20 = load i32, i32* %6, align 4
  %21 = load i32, i32* %5, align 4
  %22 = add nsw i32 %21, 1
  %23 = icmp sle i32 %20, %22
  br i1 %23, label %24, label %34

24:                                               ; preds = %19
  %25 = load i32, i32* %3, align 4
  %26 = sext i32 %25 to i64
  %27 = getelementptr inbounds [200 x [200 x i32]], [200 x [200 x i32]]* %8, i64 0, i64 %26
  %28 = load i32, i32* %6, align 4
  %29 = sext i32 %28 to i64
  %30 = getelementptr inbounds [200 x i32], [200 x i32]* %27, i64 0, i64 %29
  store i32 -1, i32* %30, align 4
  br label %31

31:                                               ; preds = %24
  %32 = load i32, i32* %6, align 4
  %33 = add nsw i32 %32, 1
  store i32 %33, i32* %6, align 4
  br label %19

34:                                               ; preds = %19
  br label %35

35:                                               ; preds = %34
  %36 = load i32, i32* %3, align 4
  %37 = add nsw i32 %36, 1
  store i32 %37, i32* %3, align 4
  br label %13

38:                                               ; preds = %13
  store i32 1, i32* %3, align 4
  br label %39

39:                                               ; preds = %60, %38
  %40 = load i32, i32* %3, align 4
  %41 = load i32, i32* %4, align 4
  %42 = icmp sle i32 %40, %41
  br i1 %42, label %43, label %63

43:                                               ; preds = %39
  store i32 1, i32* %6, align 4
  br label %44

44:                                               ; preds = %56, %43
  %45 = load i32, i32* %6, align 4
  %46 = load i32, i32* %5, align 4
  %47 = icmp sle i32 %45, %46
  br i1 %47, label %48, label %59

48:                                               ; preds = %44
  %49 = load i32, i32* %3, align 4
  %50 = sext i32 %49 to i64
  %51 = getelementptr inbounds [200 x [200 x i32]], [200 x [200 x i32]]* %8, i64 0, i64 %50
  %52 = load i32, i32* %6, align 4
  %53 = sext i32 %52 to i64
  %54 = getelementptr inbounds [200 x i32], [200 x i32]* %51, i64 0, i64 %53
  %55 = call i32 (i8*, ...) @__isoc99_scanf(i8* getelementptr inbounds ([3 x i8], [3 x i8]* @.str.1, i64 0, i64 0), i32* %54)
  br label %56

56:                                               ; preds = %48
  %57 = load i32, i32* %6, align 4
  %58 = add nsw i32 %57, 1
  store i32 %58, i32* %6, align 4
  br label %44

59:                                               ; preds = %44
  br label %60

60:                                               ; preds = %59
  %61 = load i32, i32* %3, align 4
  %62 = add nsw i32 %61, 1
  store i32 %62, i32* %3, align 4
  br label %39

63:                                               ; preds = %39
  store i32 1, i32* %9, align 4
  store i32 1, i32* %10, align 4
  store i32 0, i32* %7, align 4
  %64 = getelementptr inbounds [200 x [200 x i32]], [200 x [200 x i32]]* %8, i64 0, i64 1
  %65 = getelementptr inbounds [200 x i32], [200 x i32]* %64, i64 0, i64 1
  %66 = load i32, i32* %65, align 4
  %67 = call i32 (i8*, ...) @printf(i8* getelementptr inbounds ([3 x i8], [3 x i8]* @.str.1, i64 0, i64 0), i32 %66)
  %68 = getelementptr inbounds [200 x [200 x i32]], [200 x [200 x i32]]* %8, i64 0, i64 1
  %69 = getelementptr inbounds [200 x i32], [200 x i32]* %68, i64 0, i64 1
  store i32 -1, i32* %69, align 4
  br label %70

70:                                               ; preds = %63, %175
  %71 = load i32, i32* %9, align 4
  %72 = load i32, i32* %7, align 4
  %73 = sext i32 %72 to i64
  %74 = getelementptr inbounds [4 x [2 x i32]], [4 x [2 x i32]]* %2, i64 0, i64 %73
  %75 = getelementptr inbounds [2 x i32], [2 x i32]* %74, i64 0, i64 0
  %76 = load i32, i32* %75, align 8
  %77 = add nsw i32 %71, %76
  %78 = sext i32 %77 to i64
  %79 = getelementptr inbounds [200 x [200 x i32]], [200 x [200 x i32]]* %8, i64 0, i64 %78
  %80 = load i32, i32* %10, align 4
  %81 = load i32, i32* %7, align 4
  %82 = sext i32 %81 to i64
  %83 = getelementptr inbounds [4 x [2 x i32]], [4 x [2 x i32]]* %2, i64 0, i64 %82
  %84 = getelementptr inbounds [2 x i32], [2 x i32]* %83, i64 0, i64 1
  %85 = load i32, i32* %84, align 4
  %86 = add nsw i32 %80, %85
  %87 = sext i32 %86 to i64
  %88 = getelementptr inbounds [200 x i32], [200 x i32]* %79, i64 0, i64 %87
  %89 = load i32, i32* %88, align 4
  %90 = icmp ne i32 %89, -1
  br i1 %90, label %91, label %120

91:                                               ; preds = %70
  %92 = load i32, i32* %7, align 4
  %93 = sext i32 %92 to i64
  %94 = getelementptr inbounds [4 x [2 x i32]], [4 x [2 x i32]]* %2, i64 0, i64 %93
  %95 = getelementptr inbounds [2 x i32], [2 x i32]* %94, i64 0, i64 0
  %96 = load i32, i32* %95, align 8
  %97 = load i32, i32* %9, align 4
  %98 = add nsw i32 %97, %96
  store i32 %98, i32* %9, align 4
  %99 = load i32, i32* %7, align 4
  %100 = sext i32 %99 to i64
  %101 = getelementptr inbounds [4 x [2 x i32]], [4 x [2 x i32]]* %2, i64 0, i64 %100
  %102 = getelementptr inbounds [2 x i32], [2 x i32]* %101, i64 0, i64 1
  %103 = load i32, i32* %102, align 4
  %104 = load i32, i32* %10, align 4
  %105 = add nsw i32 %104, %103
  store i32 %105, i32* %10, align 4
  %106 = load i32, i32* %9, align 4
  %107 = sext i32 %106 to i64
  %108 = getelementptr inbounds [200 x [200 x i32]], [200 x [200 x i32]]* %8, i64 0, i64 %107
  %109 = load i32, i32* %10, align 4
  %110 = sext i32 %109 to i64
  %111 = getelementptr inbounds [200 x i32], [200 x i32]* %108, i64 0, i64 %110
  %112 = load i32, i32* %111, align 4
  %113 = call i32 (i8*, ...) @printf(i8* getelementptr inbounds ([4 x i8], [4 x i8]* @.str.2, i64 0, i64 0), i32 %112)
  %114 = load i32, i32* %9, align 4
  %115 = sext i32 %114 to i64
  %116 = getelementptr inbounds [200 x [200 x i32]], [200 x [200 x i32]]* %8, i64 0, i64 %115
  %117 = load i32, i32* %10, align 4
  %118 = sext i32 %117 to i64
  %119 = getelementptr inbounds [200 x i32], [200 x i32]* %116, i64 0, i64 %118
  store i32 -1, i32* %119, align 4
  br label %175

120:                                              ; preds = %70
  %121 = load i32, i32* %7, align 4
  %122 = add nsw i32 %121, 1
  %123 = srem i32 %122, 4
  store i32 %123, i32* %7, align 4
  %124 = load i32, i32* %9, align 4
  %125 = load i32, i32* %7, align 4
  %126 = sext i32 %125 to i64
  %127 = getelementptr inbounds [4 x [2 x i32]], [4 x [2 x i32]]* %2, i64 0, i64 %126
  %128 = getelementptr inbounds [2 x i32], [2 x i32]* %127, i64 0, i64 0
  %129 = load i32, i32* %128, align 8
  %130 = add nsw i32 %124, %129
  %131 = sext i32 %130 to i64
  %132 = getelementptr inbounds [200 x [200 x i32]], [200 x [200 x i32]]* %8, i64 0, i64 %131
  %133 = load i32, i32* %10, align 4
  %134 = load i32, i32* %7, align 4
  %135 = sext i32 %134 to i64
  %136 = getelementptr inbounds [4 x [2 x i32]], [4 x [2 x i32]]* %2, i64 0, i64 %135
  %137 = getelementptr inbounds [2 x i32], [2 x i32]* %136, i64 0, i64 1
  %138 = load i32, i32* %137, align 4
  %139 = add nsw i32 %133, %138
  %140 = sext i32 %139 to i64
  %141 = getelementptr inbounds [200 x i32], [200 x i32]* %132, i64 0, i64 %140
  %142 = load i32, i32* %141, align 4
  %143 = icmp ne i32 %142, -1
  br i1 %143, label %144, label %173

144:                                              ; preds = %120
  %145 = load i32, i32* %7, align 4
  %146 = sext i32 %145 to i64
  %147 = getelementptr inbounds [4 x [2 x i32]], [4 x [2 x i32]]* %2, i64 0, i64 %146
  %148 = getelementptr inbounds [2 x i32], [2 x i32]* %147, i64 0, i64 0
  %149 = load i32, i32* %148, align 8
  %150 = load i32, i32* %9, align 4
  %151 = add nsw i32 %150, %149
  store i32 %151, i32* %9, align 4
  %152 = load i32, i32* %7, align 4
  %153 = sext i32 %152 to i64
  %154 = getelementptr inbounds [4 x [2 x i32]], [4 x [2 x i32]]* %2, i64 0, i64 %153
  %155 = getelementptr inbounds [2 x i32], [2 x i32]* %154, i64 0, i64 1
  %156 = load i32, i32* %155, align 4
  %157 = load i32, i32* %10, align 4
  %158 = add nsw i32 %157, %156
  store i32 %158, i32* %10, align 4
  %159 = load i32, i32* %9, align 4
  %160 = sext i32 %159 to i64
  %161 = getelementptr inbounds [200 x [200 x i32]], [200 x [200 x i32]]* %8, i64 0, i64 %160
  %162 = load i32, i32* %10, align 4
  %163 = sext i32 %162 to i64
  %164 = getelementptr inbounds [200 x i32], [200 x i32]* %161, i64 0, i64 %163
  %165 = load i32, i32* %164, align 4
  %166 = call i32 (i8*, ...) @printf(i8* getelementptr inbounds ([4 x i8], [4 x i8]* @.str.2, i64 0, i64 0), i32 %165)
  %167 = load i32, i32* %9, align 4
  %168 = sext i32 %167 to i64
  %169 = getelementptr inbounds [200 x [200 x i32]], [200 x [200 x i32]]* %8, i64 0, i64 %168
  %170 = load i32, i32* %10, align 4
  %171 = sext i32 %170 to i64
  %172 = getelementptr inbounds [200 x i32], [200 x i32]* %169, i64 0, i64 %171
  store i32 -1, i32* %172, align 4
  br label %174

173:                                              ; preds = %120
  br label %176

174:                                              ; preds = %144
  br label %175

175:                                              ; preds = %174, %91
  br label %70

176:                                              ; preds = %173
  ret i32 0
}

; Function Attrs: argmemonly nounwind willreturn
declare void @llvm.memcpy.p0i8.p0i8.i64(i8* noalias nocapture writeonly, i8* noalias nocapture readonly, i64, i1 immarg) #1

declare dso_local i32 @__isoc99_scanf(i8*, ...) #2

declare dso_local i32 @printf(i8*, ...) #2


!llvm.module.flags = !{!0}
!llvm.ident = !{!1}

!0 = !{i32 1, !"wchar_size", i32 4}
!1 = !{!"clang version 10.0.0-4ubuntu1 "}
